target datalayout = "e-m:e-p270:32:32-p271:32:32-p272:64:64-i64:64-i128:128-f80:128-n8:16:32:64-S128"
target triple = "x86_64-pc-linux-gnu"

%struct.expert_field = type { i32, i32 }
%struct._dof_2008_16_security_4 = type { ptr, ptr }
%struct._dof_2008_16_security_6_1 = type { ptr, ptr, i16, i32, ptr }

@hf_security_6_1_desired_duration = internal global i32 0, align 4
@hf_security_6_1_desired_security_mode = internal global i32 0, align 4
@hf_security_6_1_initiator_request = internal global i32 0, align 4
@ett_security_6_1_desired_security_mode = internal global i32 0, align 4
@ett_security_6_1_initiator_request = internal global i32 0, align 4
@ei_security_13_out_of_range = internal global %struct.expert_field zeroinitializer, align 4

; Function Attrs: null_pointer_is_valid sspstrong uwtable
define internal i32 @dissect_2008_16_security_13(ptr noundef %0, ptr noundef %1, ptr noundef %2, ptr noundef %3) #0 {
  %5 = alloca ptr, align 8
  %6 = alloca ptr, align 8
  %7 = alloca ptr, align 8
  %8 = alloca ptr, align 8
  %9 = alloca i32, align 4
  %10 = alloca i16, align 2
  store ptr %0, ptr %5, align 8
  store ptr %1, ptr %6, align 8
  store ptr %2, ptr %7, align 8
  store ptr %3, ptr %8, align 8
  call void @llvm.lifetime.start.p0(i64 4, ptr %9) #19
  call void @llvm.lifetime.start.p0(i64 2, ptr %10) #19
  %11 = load ptr, ptr %5, align 8
  %12 = call zeroext i16 @tvb_get_ntohs(ptr noundef %11, i32 noundef 1)
  store i16 %12, ptr %10, align 2
  %13 = load i16, ptr %10, align 2
  %14 = zext i16 %13 to i32
  %15 = icmp slt i32 %14, 24576
  br i1 %15, label %20, label %16

16:                                               ; preds = %4
  %17 = load i16, ptr %10, align 2
  %18 = zext i16 %17 to i32
  %19 = icmp sge i32 %18, 28672
  br i1 %19, label %20, label %24

20:                                               ; preds = %16, %4
  %21 = load ptr, ptr %6, align 8
  %22 = load ptr, ptr %7, align 8
  %23 = call ptr @expert_add_info(ptr noundef %21, ptr noundef %22, ptr noundef @ei_security_13_out_of_range)
  br label %24

24:                                               ; preds = %20, %16
  %25 = load ptr, ptr %5, align 8
  %26 = load ptr, ptr %6, align 8
  %27 = load ptr, ptr %7, align 8
  %28 = call i32 @dissect_2008_1_dsp_1(ptr noundef %25, ptr noundef %26, ptr noundef %27)
  store i32 %28, ptr %9, align 4
  %29 = load i32, ptr %9, align 4
  call void @llvm.lifetime.end.p0(i64 2, ptr %10) #19
  call void @llvm.lifetime.end.p0(i64 4, ptr %9) #19
  ret i32 %29
}

; Function Attrs: null_pointer_is_valid sspstrong uwtable
define internal i32 @dissect_2008_16_security_6_1(ptr noundef %0, ptr noundef %1, ptr noundef %2, ptr noundef %3) #0 {
  %5 = alloca ptr, align 8
  %6 = alloca ptr, align 8
  %7 = alloca ptr, align 8
  %8 = alloca ptr, align 8
  %9 = alloca i32, align 4
  %10 = alloca ptr, align 8
  %11 = alloca i32, align 4
  %12 = alloca ptr, align 8
  %13 = alloca ptr, align 8
  %14 = alloca ptr, align 8
  %15 = alloca i32, align 4
  %16 = alloca %struct._dof_2008_16_security_4, align 8
  %17 = alloca ptr, align 8
  %18 = alloca ptr, align 8
  %19 = alloca ptr, align 8
  store ptr %0, ptr %5, align 8
  store ptr %1, ptr %6, align 8
  store ptr %2, ptr %7, align 8
  store ptr %3, ptr %8, align 8
  call void @llvm.lifetime.start.p0(i64 4, ptr %9) #19
  store i32 0, ptr %9, align 4
  call void @llvm.lifetime.start.p0(i64 8, ptr %10) #19
  %20 = load ptr, ptr %8, align 8
  store ptr %20, ptr %10, align 8
  %21 = load ptr, ptr %7, align 8
  %22 = load i32, ptr @hf_security_6_1_desired_duration, align 4
  %23 = load ptr, ptr %5, align 8
  %24 = load i32, ptr %9, align 4
  %25 = call ptr @proto_tree_add_item(ptr noundef %21, i32 noundef %22, ptr noundef %23, i32 noundef %24, i32 noundef 1, i32 noundef 0)
  %26 = load i32, ptr %9, align 4
  %27 = add i32 %26, 1
  store i32 %27, ptr %9, align 4
  call void @llvm.lifetime.start.p0(i64 4, ptr %11) #19
  call void @llvm.lifetime.start.p0(i64 8, ptr %12) #19
  %28 = load ptr, ptr %5, align 8
  %29 = load i32, ptr %9, align 4
  %30 = call ptr @tvb_new_subset_remaining(ptr noundef %28, i32 noundef %29)
  store ptr %30, ptr %12, align 8
  call void @llvm.lifetime.start.p0(i64 8, ptr %13) #19
  call void @llvm.lifetime.start.p0(i64 8, ptr %14) #19
  %31 = load ptr, ptr %7, align 8
  %32 = load i32, ptr @hf_security_6_1_desired_security_mode, align 4
  %33 = load ptr, ptr %5, align 8
  %34 = load i32, ptr %9, align 4
  %35 = call ptr @proto_tree_add_item(ptr noundef %31, i32 noundef %32, ptr noundef %33, i32 noundef %34, i32 noundef 0, i32 noundef 0)
  store ptr %35, ptr %13, align 8
  %36 = load ptr, ptr %13, align 8
  %37 = load i32, ptr @ett_security_6_1_desired_security_mode, align 4
  %38 = call ptr @proto_item_add_subtree(ptr noundef %36, i32 noundef %37)
  store ptr %38, ptr %14, align 8
  %39 = load ptr, ptr %12, align 8
  %40 = load ptr, ptr %6, align 8
  %41 = load ptr, ptr %14, align 8
  %42 = call i32 @dissect_2008_16_security_13(ptr noundef %39, ptr noundef %40, ptr noundef %41, ptr noundef null)
  store i32 %42, ptr %11, align 4
  %43 = load i32, ptr %11, align 4
  %44 = load i32, ptr %9, align 4
  %45 = add i32 %44, %43
  store i32 %45, ptr %9, align 4
  %46 = load ptr, ptr %12, align 8
  %47 = load i32, ptr %11, align 4
  call void @tvb_set_reported_length(ptr noundef %46, i32 noundef %47)
  %48 = load ptr, ptr %13, align 8
  %49 = load i32, ptr %11, align 4
  call void @proto_item_set_len(ptr noundef %48, i32 noundef %49)
  %50 = load ptr, ptr %10, align 8
  %51 = icmp ne ptr %50, null
  br i1 %51, label %52, label %69

52:                                               ; preds = %4
  %53 = load ptr, ptr %12, align 8
  %54 = call zeroext i16 @tvb_get_ntohs(ptr noundef %53, i32 noundef 1)
  %55 = load ptr, ptr %10, align 8
  %56 = getelementptr inbounds nuw %struct._dof_2008_16_security_6_1, ptr %55, i32 0, i32 2
  store i16 %54, ptr %56, align 8
  %57 = load i32, ptr %11, align 4
  %58 = sub i32 %57, 4
  %59 = load ptr, ptr %10, align 8
  %60 = getelementptr inbounds nuw %struct._dof_2008_16_security_6_1, ptr %59, i32 0, i32 3
  store i32 %58, ptr %60, align 4
  %61 = call ptr @wmem_file_scope()
  %62 = load ptr, ptr %12, align 8
  %63 = load i32, ptr %11, align 4
  %64 = sub i32 %63, 4
  %65 = sext i32 %64 to i64
  %66 = call ptr @tvb_memdup(ptr noundef %61, ptr noundef %62, i32 noundef 4, i64 noundef %65)
  %67 = load ptr, ptr %10, align 8
  %68 = getelementptr inbounds nuw %struct._dof_2008_16_security_6_1, ptr %67, i32 0, i32 4
  store ptr %66, ptr %68, align 8
  br label %69

69:                                               ; preds = %52, %4
  call void @llvm.lifetime.end.p0(i64 8, ptr %14) #19
  call void @llvm.lifetime.end.p0(i64 8, ptr %13) #19
  call void @llvm.lifetime.end.p0(i64 8, ptr %12) #19
  call void @llvm.lifetime.end.p0(i64 4, ptr %11) #19
  call void @llvm.lifetime.start.p0(i64 4, ptr %15) #19
  call void @llvm.lifetime.start.p0(i64 16, ptr %16) #19
  call void @llvm.lifetime.start.p0(i64 8, ptr %17) #19
  %70 = load ptr, ptr %5, align 8
  %71 = load i32, ptr %9, align 4
  %72 = call ptr @tvb_new_subset_remaining(ptr noundef %70, i32 noundef %71)
  store ptr %72, ptr %17, align 8
  call void @llvm.lifetime.start.p0(i64 8, ptr %18) #19
  call void @llvm.lifetime.start.p0(i64 8, ptr %19) #19
  %73 = load ptr, ptr %7, align 8
  %74 = load i32, ptr @hf_security_6_1_initiator_request, align 4
  %75 = load ptr, ptr %5, align 8
  %76 = load i32, ptr %9, align 4
  %77 = call ptr @proto_tree_add_item(ptr noundef %73, i32 noundef %74, ptr noundef %75, i32 noundef %76, i32 noundef 0, i32 noundef 0)
  store ptr %77, ptr %18, align 8
  %78 = load ptr, ptr %18, align 8
  %79 = load i32, ptr @ett_security_6_1_initiator_request, align 4
  %80 = call ptr @proto_item_add_subtree(ptr noundef %78, i32 noundef %79)
  store ptr %80, ptr %19, align 8
  %81 = load ptr, ptr %17, align 8
  %82 = load ptr, ptr %6, align 8
  %83 = load ptr, ptr %19, align 8
  %84 = call i32 @dissect_2008_16_security_4(ptr noundef %81, ptr noundef %82, ptr noundef %83, ptr noundef %16)
  store i32 %84, ptr %15, align 4
  %85 = load ptr, ptr %18, align 8
  %86 = load i32, ptr %15, align 4
  call void @proto_item_set_len(ptr noundef %85, i32 noundef %86)
  %87 = load i32, ptr %15, align 4
  %88 = load i32, ptr %9, align 4
  %89 = add i32 %88, %87
  store i32 %89, ptr %9, align 4
  %90 = load ptr, ptr %10, align 8
  %91 = icmp ne ptr %90, null
  br i1 %91, label %92, label %101

92:                                               ; preds = %69
  %93 = getelementptr inbounds nuw %struct._dof_2008_16_security_4, ptr %16, i32 0, i32 0
  %94 = load ptr, ptr %93, align 8
  %95 = load ptr, ptr %10, align 8
  %96 = getelementptr inbounds nuw %struct._dof_2008_16_security_6_1, ptr %95, i32 0, i32 0
  store ptr %94, ptr %96, align 8
  %97 = getelementptr inbounds nuw %struct._dof_2008_16_security_4, ptr %16, i32 0, i32 1
  %98 = load ptr, ptr %97, align 8
  %99 = load ptr, ptr %10, align 8
  %100 = getelementptr inbounds nuw %struct._dof_2008_16_security_6_1, ptr %99, i32 0, i32 1
  store ptr %98, ptr %100, align 8
  br label %101

101:                                              ; preds = %92, %69
  call void @llvm.lifetime.end.p0(i64 8, ptr %19) #19
  call void @llvm.lifetime.end.p0(i64 8, ptr %18) #19
  call void @llvm.lifetime.end.p0(i64 8, ptr %17) #19
  call void @llvm.lifetime.end.p0(i64 16, ptr %16) #19
  call void @llvm.lifetime.end.p0(i64 4, ptr %15) #19
  %102 = load i32, ptr %9, align 4
  call void @llvm.lifetime.end.p0(i64 8, ptr %10) #19
  call void @llvm.lifetime.end.p0(i64 4, ptr %9) #19
  ret i32 %102
}