; Function Attrs: null_pointer_is_valid sspstrong uwtable
define internal i32 @dissect_2008_16_security_6_1(ptr noundef %0, ptr noundef %1, ptr noundef %2, ptr noundef writeonly captures(address_is_null) %3) #0 {
  %5 = alloca %struct._dof_2008_16_security_4, align 8
  %6 = load i32, ptr @hf_security_6_1_desired_duration, align 4
  %7 = tail call ptr @proto_tree_add_item(ptr noundef %2, i32 noundef %6, ptr noundef %0, i32 noundef 0, i32 noundef 1, i32 noundef 0)
  %8 = tail call ptr @tvb_new_subset_remaining(ptr noundef %0, i32 noundef 1)
  %9 = load i32, ptr @hf_security_6_1_desired_security_mode, align 4
  %10 = tail call ptr @proto_tree_add_item(ptr noundef %2, i32 noundef %9, ptr noundef %0, i32 noundef 1, i32 noundef 0, i32 noundef 0)
  %11 = load i32, ptr @ett_security_6_1_desired_security_mode, align 4
  %12 = tail call ptr @proto_item_add_subtree(ptr noundef %10, i32 noundef %11)
  %13 = tail call zeroext i16 @tvb_get_ntohs(ptr noundef %8, i32 noundef 1)
  %14 = add i16 %13, -28672
  %or.cond.i = icmp ult i16 %14, -4096
  br i1 %or.cond.i, label %15, label %dissect_2008_16_security_13.exit

15:                                               ; preds = %4
  %16 = tail call ptr @expert_add_info(ptr noundef %1, ptr noundef %12, ptr noundef nonnull @ei_security_13_out_of_range)
  br label %dissect_2008_16_security_13.exit

dissect_2008_16_security_13.exit:                 ; preds = %4, %15
  %17 = tail call fastcc range(i32 4, 260) i32 @dissect_2008_1_dsp_1(ptr noundef %8, ptr noundef %1, ptr noundef %12)
  %18 = add nuw nsw i32 %17, 1
  tail call void @tvb_set_reported_length(ptr noundef %8, i32 noundef %17)
  tail call void @proto_item_set_len(ptr noundef %10, i32 noundef %17)
  %.not = icmp eq ptr %3, null
  br i1 %.not, label %28, label %19

19:                                               ; preds = %dissect_2008_16_security_13.exit
  %20 = tail call zeroext i16 @tvb_get_ntohs(ptr noundef %8, i32 noundef 1)
  %21 = getelementptr inbounds nuw i8, ptr %3, i64 16
  store i16 %20, ptr %21, align 8
  %22 = add nsw i32 %17, -4
  %23 = getelementptr inbounds nuw i8, ptr %3, i64 20
  store i32 %22, ptr %23, align 4
  %24 = tail call ptr @wmem_file_scope()
  %25 = zext nneg i32 %22 to i64
  %26 = tail call ptr @tvb_memdup(ptr noundef %24, ptr noundef %8, i32 noundef 4, i64 noundef %25)
  %27 = getelementptr inbounds nuw i8, ptr %3, i64 24
  store ptr %26, ptr %27, align 8
  br label %28

28:                                               ; preds = %19, %dissect_2008_16_security_13.exit
  call void @llvm.lifetime.start.p0(i64 16, ptr nonnull %5) #27
  %29 = tail call ptr @tvb_new_subset_remaining(ptr noundef %0, i32 noundef %18)
  %30 = load i32, ptr @hf_security_6_1_initiator_request, align 4
  %31 = tail call ptr @proto_tree_add_item(ptr noundef %2, i32 noundef %30, ptr noundef %0, i32 noundef %18, i32 noundef 0, i32 noundef 0)
  %32 = load i32, ptr @ett_security_6_1_initiator_request, align 4
  %33 = tail call ptr @proto_item_add_subtree(ptr noundef %31, i32 noundef %32)
  %34 = call i32 @dissect_2008_16_security_4(ptr noundef %29, ptr noundef %1, ptr noundef %33, ptr noundef nonnull %5)
  call void @proto_item_set_len(ptr noundef %31, i32 noundef %34)
  br i1 %.not, label %40, label %35

35:                                               ; preds = %28
  %36 = load ptr, ptr %5, align 8
  store ptr %36, ptr %3, align 8
  %37 = getelementptr inbounds nuw i8, ptr %5, i64 8
  %38 = load ptr, ptr %37, align 8
  %39 = getelementptr inbounds nuw i8, ptr %3, i64 8
  store ptr %38, ptr %39, align 8
  br label %40

40:                                               ; preds = %35, %28
  %41 = add i32 %34, %18
  call void @llvm.lifetime.end.p0(i64 16, ptr nonnull %5) #27
  ret i32 %41
}